target datalayout = "e-m:e-p270:32:32-p271:32:32-p272:64:64-i64:64-i128:128-f80:128-n8:16:32:64-S128"
target triple = "x86_64-pc-linux-gnu"

%struct.cipher_id_name = type { i32, ptr }

@.str.1 = private unnamed_addr constant [10 x i8] c"ALL:eNULL\00", align 1
@.str.2 = private unnamed_addr constant [34 x i8] c"../openssl/test/ciphername_test.c\00", align 1
@.str.3 = private unnamed_addr constant [2 x i8] c"p\00", align 1
@.str.4 = private unnamed_addr constant [9 x i8] c"\22(NONE)\22\00", align 1
@.str.5 = private unnamed_addr constant [7 x i8] c"(NONE)\00", align 1
@.str.6 = private unnamed_addr constant [66 x i8] c"test_cipher_name(std) failed: NULL input doesn't return \22(NONE)\22\0A\00", align 1
@.str.7 = private unnamed_addr constant [67 x i8] c"test_cipher_name(ossl) failed: NULL input doesn't return \22(NONE)\22\0A\00", align 1
@.str.8 = private unnamed_addr constant [27 x i8] c"This is not a valid cipher\00", align 1
@.str.9 = private unnamed_addr constant [70 x i8] c"test_cipher_name(ossl) failed: invalid input doesn't return \22(NONE)\22\0A\00", align 1
@.str.10 = private unnamed_addr constant [41 x i8] c"test_cipher_name failed: internal error\0A\00", align 1
@.str.11 = private unnamed_addr constant [59 x i8] c"test_cipher_name failed: expected %s, got NULL, cipher %x\0A\00", align 1
@.str.12 = private unnamed_addr constant [2 x i8] c"q\00", align 1
@.str.13 = private unnamed_addr constant [62 x i8] c"test_cipher_name(std) failed: expected %s, got %s, cipher %x\0A\00", align 1
@.str.14 = private unnamed_addr constant [2 x i8] c"r\00", align 1
@.str.15 = private unnamed_addr constant [63 x i8] c"test_cipher_name(ossl) failed: expected %s, got %s, cipher %x\0A\00", align 1

; Function Attrs: nounwind uwtable
define internal ptr @get_std_name_by_id(i32 noundef %0) #0 {
  %2 = alloca ptr, align 8
  %3 = alloca i32, align 4
  %4 = alloca i64, align 8
  %5 = alloca i32, align 4
  store i32 %0, ptr %3, align 4, !tbaa !15
  call void @llvm.lifetime.start.p0(i64 8, ptr %4) #4
  store i64 0, ptr %4, align 8, !tbaa !21
  br label %6

6:                                                ; preds = %22, %1
  %7 = load i64, ptr %4, align 8, !tbaa !21
  %8 = icmp ult i64 %7, 336
  br i1 %8, label %9, label %25

9:                                                ; preds = %6
  %10 = load i64, ptr %4, align 8, !tbaa !21
  %11 = getelementptr inbounds nuw [336 x %struct.cipher_id_name], ptr @cipher_names, i64 0, i64 %10
  %12 = getelementptr inbounds nuw %struct.cipher_id_name, ptr %11, i32 0, i32 0
  %13 = load i32, ptr %12, align 16, !tbaa !23
  %14 = load i32, ptr %3, align 4, !tbaa !15
  %15 = icmp eq i32 %13, %14
  br i1 %15, label %16, label %21

16:                                               ; preds = %9
  %17 = load i64, ptr %4, align 8, !tbaa !21
  %18 = getelementptr inbounds nuw [336 x %struct.cipher_id_name], ptr @cipher_names, i64 0, i64 %17
  %19 = getelementptr inbounds nuw %struct.cipher_id_name, ptr %18, i32 0, i32 1
  %20 = load ptr, ptr %19, align 8, !tbaa !25
  store ptr %20, ptr %2, align 8
  store i32 1, ptr %5, align 4
  br label %26

21:                                               ; preds = %9
  br label %22

22:                                               ; preds = %21
  %23 = load i64, ptr %4, align 8, !tbaa !21
  %24 = add i64 %23, 1
  store i64 %24, ptr %4, align 8, !tbaa !21
  br label %6, !llvm.loop !26

25:                                               ; preds = %6
  store ptr null, ptr %2, align 8
  store i32 1, ptr %5, align 4
  br label %26

26:                                               ; preds = %25, %16
  call void @llvm.lifetime.end.p0(i64 8, ptr %4) #4
  %27 = load ptr, ptr %2, align 8
  ret ptr %27
}

; Function Attrs: inlinehint nounwind uwtable
define internal ptr @ossl_check_const_SSL_CIPHER_sk_type(ptr noundef %0) #3 {
  %2 = alloca ptr, align 8
  store ptr %0, ptr %2, align 8, !tbaa !11
  %3 = load ptr, ptr %2, align 8, !tbaa !11
  ret ptr %3
}

; Function Attrs: nounwind uwtable
define internal i32 @test_cipher_name() #0 {
  %1 = alloca ptr, align 8
  %2 = alloca ptr, align 8
  %3 = alloca ptr, align 8
  %4 = alloca ptr, align 8
  %5 = alloca ptr, align 8
  %6 = alloca ptr, align 8
  %7 = alloca ptr, align 8
  %8 = alloca ptr, align 8
  %9 = alloca i32, align 4
  %10 = alloca i32, align 4
  %11 = alloca i32, align 4
  call void @llvm.lifetime.start.p0(i64 8, ptr %1) #4
  store ptr null, ptr %1, align 8, !tbaa !4
  call void @llvm.lifetime.start.p0(i64 8, ptr %2) #4
  store ptr null, ptr %2, align 8, !tbaa !9
  call void @llvm.lifetime.start.p0(i64 8, ptr %3) #4
  call void @llvm.lifetime.start.p0(i64 8, ptr %4) #4
  store ptr null, ptr %4, align 8, !tbaa !11
  call void @llvm.lifetime.start.p0(i64 8, ptr %5) #4
  store ptr @.str.1, ptr %5, align 8, !tbaa !13
  call void @llvm.lifetime.start.p0(i64 8, ptr %6) #4
  call void @llvm.lifetime.start.p0(i64 8, ptr %7) #4
  call void @llvm.lifetime.start.p0(i64 8, ptr %8) #4
  call void @llvm.lifetime.start.p0(i64 4, ptr %9) #4
  call void @llvm.lifetime.start.p0(i64 4, ptr %10) #4
  store i32 0, ptr %10, align 4, !tbaa !15
  call void @llvm.lifetime.start.p0(i64 4, ptr %11) #4
  store i32 0, ptr %11, align 4, !tbaa !15
  %12 = call ptr @SSL_CIPHER_standard_name(ptr noundef null)
  store ptr %12, ptr %6, align 8, !tbaa !13
  %13 = load ptr, ptr %6, align 8, !tbaa !13
  %14 = call i32 @test_str_eq(ptr noundef @.str.2, i32 noundef 392, ptr noundef @.str.3, ptr noundef @.str.4, ptr noundef %13, ptr noundef @.str.5)
  %15 = icmp ne i32 %14, 0
  br i1 %15, label %17, label %16

16:                                               ; preds = %0
  call void (ptr, i32, ptr, ...) @test_info(ptr noundef @.str.2, i32 noundef 393, ptr noundef @.str.6)
  br label %115

17:                                               ; preds = %0
  %18 = call ptr @OPENSSL_cipher_name(ptr noundef null)
  store ptr %18, ptr %6, align 8, !tbaa !13
  %19 = load ptr, ptr %6, align 8, !tbaa !13
  %20 = call i32 @test_str_eq(ptr noundef @.str.2, i32 noundef 398, ptr noundef @.str.3, ptr noundef @.str.4, ptr noundef %19, ptr noundef @.str.5)
  %21 = icmp ne i32 %20, 0
  br i1 %21, label %23, label %22

22:                                               ; preds = %17
  call void (ptr, i32, ptr, ...) @test_info(ptr noundef @.str.2, i32 noundef 399, ptr noundef @.str.7)
  br label %115

23:                                               ; preds = %17
  %24 = call ptr @OPENSSL_cipher_name(ptr noundef @.str.8)
  store ptr %24, ptr %6, align 8, !tbaa !13
  %25 = load ptr, ptr %6, align 8, !tbaa !13
  %26 = call i32 @test_str_eq(ptr noundef @.str.2, i32 noundef 404, ptr noundef @.str.3, ptr noundef @.str.4, ptr noundef %25, ptr noundef @.str.5)
  %27 = icmp ne i32 %26, 0
  br i1 %27, label %29, label %28

28:                                               ; preds = %23
  call void (ptr, i32, ptr, ...) @test_info(ptr noundef @.str.2, i32 noundef 405, ptr noundef @.str.9)
  br label %115

29:                                               ; preds = %23
  %30 = call ptr @TLS_server_method()
  %31 = call ptr @SSL_CTX_new(ptr noundef %30)
  store ptr %31, ptr %1, align 8, !tbaa !4
  %32 = load ptr, ptr %1, align 8, !tbaa !4
  %33 = icmp eq ptr %32, null
  br i1 %33, label %34, label %35

34:                                               ; preds = %29
  call void (ptr, i32, ptr, ...) @test_info(ptr noundef @.str.2, i32 noundef 412, ptr noundef @.str.10)
  br label %115

35:                                               ; preds = %29
  %36 = load ptr, ptr %1, align 8, !tbaa !4
  %37 = load ptr, ptr %5, align 8, !tbaa !13
  %38 = call i32 @SSL_CTX_set_cipher_list(ptr noundef %36, ptr noundef %37)
  %39 = icmp ne i32 %38, 0
  br i1 %39, label %41, label %40

40:                                               ; preds = %35
  call void (ptr, i32, ptr, ...) @test_info(ptr noundef @.str.2, i32 noundef 417, ptr noundef @.str.10)
  br label %115

41:                                               ; preds = %35
  %42 = load ptr, ptr %1, align 8, !tbaa !4
  %43 = call ptr @SSL_new(ptr noundef %42)
  store ptr %43, ptr %2, align 8, !tbaa !9
  %44 = load ptr, ptr %2, align 8, !tbaa !9
  %45 = icmp eq ptr %44, null
  br i1 %45, label %46, label %47

46:                                               ; preds = %41
  call void (ptr, i32, ptr, ...) @test_info(ptr noundef @.str.2, i32 noundef 423, ptr noundef @.str.10)
  br label %115

47:                                               ; preds = %41
  %48 = load ptr, ptr %2, align 8, !tbaa !9
  %49 = call ptr @SSL_get_ciphers(ptr noundef %48)
  store ptr %49, ptr %4, align 8, !tbaa !11
  %50 = load ptr, ptr %4, align 8, !tbaa !11
  %51 = icmp eq ptr %50, null
  br i1 %51, label %52, label %53

52:                                               ; preds = %47
  call void (ptr, i32, ptr, ...) @test_info(ptr noundef @.str.2, i32 noundef 429, ptr noundef @.str.10)
  br label %115

53:                                               ; preds = %47
  store i32 0, ptr %9, align 4, !tbaa !15
  br label %54

54:                                               ; preds = %111, %53
  %55 = load i32, ptr %9, align 4, !tbaa !15
  %56 = load ptr, ptr %4, align 8, !tbaa !11
  %57 = call ptr @ossl_check_const_SSL_CIPHER_sk_type(ptr noundef %56)
  %58 = call i32 @OPENSSL_sk_num(ptr noundef %57)
  %59 = icmp slt i32 %55, %58
  br i1 %59, label %60, label %114

60:                                               ; preds = %54
  %61 = load ptr, ptr %4, align 8, !tbaa !11
  %62 = call ptr @ossl_check_const_SSL_CIPHER_sk_type(ptr noundef %61)
  %63 = load i32, ptr %9, align 4, !tbaa !15
  %64 = call ptr @OPENSSL_sk_value(ptr noundef %62, i32 noundef %63)
  store ptr %64, ptr %3, align 8, !tbaa !17
  %65 = load ptr, ptr %3, align 8, !tbaa !17
  %66 = call i32 @SSL_CIPHER_get_id(ptr noundef %65)
  %67 = and i32 %66, 65535
  store i32 %67, ptr %10, align 4, !tbaa !15
  %68 = load i32, ptr %10, align 4, !tbaa !15
  %69 = icmp eq i32 %68, 49410
  br i1 %69, label %76, label %70

70:                                               ; preds = %60
  %71 = load i32, ptr %10, align 4, !tbaa !15
  %72 = icmp eq i32 %71, 65413
  br i1 %72, label %76, label %73

73:                                               ; preds = %70
  %74 = load i32, ptr %10, align 4, !tbaa !15
  %75 = icmp eq i32 %74, 65415
  br i1 %75, label %76, label %77

76:                                               ; preds = %73, %70, %60
  br label %111

77:                                               ; preds = %73
  %78 = load ptr, ptr %3, align 8, !tbaa !17
  %79 = call ptr @SSL_CIPHER_standard_name(ptr noundef %78)
  store ptr %79, ptr %6, align 8, !tbaa !13
  %80 = load i32, ptr %10, align 4, !tbaa !15
  %81 = call ptr @get_std_name_by_id(i32 noundef %80)
  store ptr %81, ptr %7, align 8, !tbaa !13
  %82 = load ptr, ptr %6, align 8, !tbaa !13
  %83 = call i32 @test_ptr(ptr noundef @.str.2, i32 noundef 441, ptr noundef @.str.3, ptr noundef %82)
  %84 = icmp ne i32 %83, 0
  br i1 %84, label %88, label %85

85:                                               ; preds = %77
  %86 = load ptr, ptr %7, align 8, !tbaa !13
  %87 = load i32, ptr %10, align 4, !tbaa !15
  call void (ptr, i32, ptr, ...) @test_info(ptr noundef @.str.2, i32 noundef 443, ptr noundef @.str.11, ptr noundef %86, i32 noundef %87)
  br label %115

88:                                               ; preds = %77
  %89 = load ptr, ptr %6, align 8, !tbaa !13
  %90 = load ptr, ptr %7, align 8, !tbaa !13
  %91 = call i32 @test_str_eq(ptr noundef @.str.2, i32 noundef 447, ptr noundef @.str.3, ptr noundef @.str.12, ptr noundef %89, ptr noundef %90)
  %92 = icmp ne i32 %91, 0
  br i1 %92, label %97, label %93

93:                                               ; preds = %88
  %94 = load ptr, ptr %7, align 8, !tbaa !13
  %95 = load ptr, ptr %6, align 8, !tbaa !13
  %96 = load i32, ptr %10, align 4, !tbaa !15
  call void (ptr, i32, ptr, ...) @test_info(ptr noundef @.str.2, i32 noundef 449, ptr noundef @.str.13, ptr noundef %94, ptr noundef %95, i32 noundef %96)
  br label %115

97:                                               ; preds = %88
  %98 = load ptr, ptr %3, align 8, !tbaa !17
  %99 = call ptr @SSL_CIPHER_get_name(ptr noundef %98)
  store ptr %99, ptr %7, align 8, !tbaa !13
  %100 = load ptr, ptr %6, align 8, !tbaa !13
  %101 = call ptr @OPENSSL_cipher_name(ptr noundef %100)
  store ptr %101, ptr %8, align 8, !tbaa !13
  %102 = load ptr, ptr %8, align 8, !tbaa !13
  %103 = load ptr, ptr %7, align 8, !tbaa !13
  %104 = call i32 @test_str_eq(ptr noundef @.str.2, i32 noundef 455, ptr noundef @.str.14, ptr noundef @.str.12, ptr noundef %102, ptr noundef %103)
  %105 = icmp ne i32 %104, 0
  br i1 %105, label %110, label %106

106:                                              ; preds = %97
  %107 = load ptr, ptr %7, align 8, !tbaa !13
  %108 = load ptr, ptr %8, align 8, !tbaa !13
  %109 = load i32, ptr %10, align 4, !tbaa !15
  call void (ptr, i32, ptr, ...) @test_info(ptr noundef @.str.2, i32 noundef 457, ptr noundef @.str.15, ptr noundef %107, ptr noundef %108, i32 noundef %109)
  br label %115

110:                                              ; preds = %97
  br label %111

111:                                              ; preds = %110, %76
  %112 = load i32, ptr %9, align 4, !tbaa !15
  %113 = add nsw i32 %112, 1
  store i32 %113, ptr %9, align 4, !tbaa !15
  br label %54, !llvm.loop !19

114:                                              ; preds = %54
  store i32 1, ptr %11, align 4, !tbaa !15
  br label %115

115:                                              ; preds = %114, %106, %93, %85, %52, %46, %40, %34, %28, %22, %16
  %116 = load ptr, ptr %1, align 8, !tbaa !4
  call void @SSL_CTX_free(ptr noundef %116)
  %117 = load ptr, ptr %2, align 8, !tbaa !9
  call void @SSL_free(ptr noundef %117)
  %118 = load i32, ptr %11, align 4, !tbaa !15
  call void @llvm.lifetime.end.p0(i64 4, ptr %11) #4
  call void @llvm.lifetime.end.p0(i64 4, ptr %10) #4
  call void @llvm.lifetime.end.p0(i64 4, ptr %9) #4
  call void @llvm.lifetime.end.p0(i64 8, ptr %8) #4
  call void @llvm.lifetime.end.p0(i64 8, ptr %7) #4
  call void @llvm.lifetime.end.p0(i64 8, ptr %6) #4
  call void @llvm.lifetime.end.p0(i64 8, ptr %5) #4
  call void @llvm.lifetime.end.p0(i64 8, ptr %4) #4
  call void @llvm.lifetime.end.p0(i64 8, ptr %3) #4
  call void @llvm.lifetime.end.p0(i64 8, ptr %2) #4
  call void @llvm.lifetime.end.p0(i64 8, ptr %1) #4
  ret i32 %118
}