; Function Attrs: nounwind uwtable
define internal range(i32 0, 2) i32 @test_cipher_name() #0 {
  %1 = tail call ptr @SSL_CIPHER_standard_name(ptr noundef null) #2
  %2 = tail call i32 @test_str_eq(ptr noundef nonnull @.str.2, i32 noundef 392, ptr noundef nonnull @.str.3, ptr noundef nonnull @.str.4, ptr noundef %1, ptr noundef nonnull @.str.5) #2
  %.not = icmp eq i32 %2, 0
  br i1 %.not, label %3, label %4

3:                                                ; preds = %0
  tail call void (ptr, i32, ptr, ...) @test_info(ptr noundef nonnull @.str.2, i32 noundef 393, ptr noundef nonnull @.str.6) #2
  br label %.loopexit

4:                                                ; preds = %0
  %5 = tail call ptr @OPENSSL_cipher_name(ptr noundef null) #2
  %6 = tail call i32 @test_str_eq(ptr noundef nonnull @.str.2, i32 noundef 398, ptr noundef nonnull @.str.3, ptr noundef nonnull @.str.4, ptr noundef %5, ptr noundef nonnull @.str.5) #2
  %.not49 = icmp eq i32 %6, 0
  br i1 %.not49, label %7, label %8

7:                                                ; preds = %4
  tail call void (ptr, i32, ptr, ...) @test_info(ptr noundef nonnull @.str.2, i32 noundef 399, ptr noundef nonnull @.str.7) #2
  br label %.loopexit

8:                                                ; preds = %4
  %9 = tail call ptr @OPENSSL_cipher_name(ptr noundef nonnull @.str.8) #2
  %10 = tail call i32 @test_str_eq(ptr noundef nonnull @.str.2, i32 noundef 404, ptr noundef nonnull @.str.3, ptr noundef nonnull @.str.4, ptr noundef %9, ptr noundef nonnull @.str.5) #2
  %.not50 = icmp eq i32 %10, 0
  br i1 %.not50, label %11, label %12

11:                                               ; preds = %8
  tail call void (ptr, i32, ptr, ...) @test_info(ptr noundef nonnull @.str.2, i32 noundef 405, ptr noundef nonnull @.str.9) #2
  br label %.loopexit

12:                                               ; preds = %8
  %13 = tail call ptr @TLS_server_method() #2
  %14 = tail call ptr @SSL_CTX_new(ptr noundef %13) #2
  %15 = icmp eq ptr %14, null
  br i1 %15, label %16, label %17

16:                                               ; preds = %12
  tail call void (ptr, i32, ptr, ...) @test_info(ptr noundef nonnull @.str.2, i32 noundef 412, ptr noundef nonnull @.str.10) #2
  br label %.loopexit

17:                                               ; preds = %12
  %18 = tail call i32 @SSL_CTX_set_cipher_list(ptr noundef nonnull %14, ptr noundef nonnull @.str.1) #2
  %.not51 = icmp eq i32 %18, 0
  br i1 %.not51, label %19, label %20

19:                                               ; preds = %17
  tail call void (ptr, i32, ptr, ...) @test_info(ptr noundef nonnull @.str.2, i32 noundef 417, ptr noundef nonnull @.str.10) #2
  br label %.loopexit

20:                                               ; preds = %17
  %21 = tail call ptr @SSL_new(ptr noundef nonnull %14) #2
  %22 = icmp eq ptr %21, null
  br i1 %22, label %23, label %24

23:                                               ; preds = %20
  tail call void (ptr, i32, ptr, ...) @test_info(ptr noundef nonnull @.str.2, i32 noundef 423, ptr noundef nonnull @.str.10) #2
  br label %.loopexit

24:                                               ; preds = %20
  %25 = tail call ptr @SSL_get_ciphers(ptr noundef nonnull %21) #2
  %26 = icmp eq ptr %25, null
  br i1 %26, label %29, label %.preheader

.preheader:                                       ; preds = %24
  %27 = tail call i32 @OPENSSL_sk_num(ptr noundef nonnull %25) #2
  %28 = icmp sgt i32 %27, 0
  br i1 %28, label %.lr.ph, label %.loopexit

29:                                               ; preds = %24
  tail call void (ptr, i32, ptr, ...) @test_info(ptr noundef nonnull @.str.2, i32 noundef 429, ptr noundef nonnull @.str.10) #2
  br label %.loopexit

.lr.ph:                                           ; preds = %.preheader, %57
  %.04166 = phi i32 [ %58, %57 ], [ 0, %.preheader ]
  %30 = tail call ptr @OPENSSL_sk_value(ptr noundef nonnull %25, i32 noundef %.04166) #2
  %31 = tail call i32 @SSL_CIPHER_get_id(ptr noundef %30) #2
  %32 = and i32 %31, 65535
  %33 = icmp eq i32 %32, 49410
  %34 = and i32 %31, 65533
  %35 = icmp eq i32 %34, 65413
  %or.cond3 = or i1 %33, %35
  br i1 %or.cond3, label %57, label %36

36:                                               ; preds = %.lr.ph
  %37 = tail call ptr @SSL_CIPHER_standard_name(ptr noundef %30) #2
  br label %40

38:                                               ; preds = %40
  %39 = add nuw nsw i64 %.06.i, 1
  %exitcond.not.i = icmp eq i64 %39, 336
  br i1 %exitcond.not.i, label %get_std_name_by_id.exit, label %40, !llvm.loop !4

40:                                               ; preds = %38, %36
  %.06.i = phi i64 [ 0, %36 ], [ %39, %38 ]
  %41 = getelementptr inbounds nuw [336 x %struct.cipher_id_name], ptr @cipher_names, i64 0, i64 %.06.i
  %42 = load i32, ptr %41, align 16, !tbaa !6
  %43 = icmp eq i32 %42, %32
  br i1 %43, label %44, label %38

44:                                               ; preds = %40
  %45 = getelementptr inbounds nuw i8, ptr %41, i64 8
  %46 = load ptr, ptr %45, align 8, !tbaa !13
  br label %get_std_name_by_id.exit

get_std_name_by_id.exit:                          ; preds = %38, %44
  %.05.i = phi ptr [ %46, %44 ], [ null, %38 ]
  %47 = tail call i32 @test_ptr(ptr noundef nonnull @.str.2, i32 noundef 441, ptr noundef nonnull @.str.3, ptr noundef %37) #2
  %.not52 = icmp eq i32 %47, 0
  br i1 %.not52, label %48, label %49

48:                                               ; preds = %get_std_name_by_id.exit
  tail call void (ptr, i32, ptr, ...) @test_info(ptr noundef nonnull @.str.2, i32 noundef 443, ptr noundef nonnull @.str.11, ptr noundef %.05.i, i32 noundef %32) #2
  br label %.loopexit

49:                                               ; preds = %get_std_name_by_id.exit
  %50 = tail call i32 @test_str_eq(ptr noundef nonnull @.str.2, i32 noundef 447, ptr noundef nonnull @.str.3, ptr noundef nonnull @.str.12, ptr noundef %37, ptr noundef %.05.i) #2
  %.not53 = icmp eq i32 %50, 0
  br i1 %.not53, label %51, label %52

51:                                               ; preds = %49
  tail call void (ptr, i32, ptr, ...) @test_info(ptr noundef nonnull @.str.2, i32 noundef 449, ptr noundef nonnull @.str.13, ptr noundef %.05.i, ptr noundef %37, i32 noundef %32) #2
  br label %.loopexit

52:                                               ; preds = %49
  %53 = tail call ptr @SSL_CIPHER_get_name(ptr noundef %30) #2
  %54 = tail call ptr @OPENSSL_cipher_name(ptr noundef %37) #2
  %55 = tail call i32 @test_str_eq(ptr noundef nonnull @.str.2, i32 noundef 455, ptr noundef nonnull @.str.14, ptr noundef nonnull @.str.12, ptr noundef %54, ptr noundef %53) #2
  %.not54 = icmp eq i32 %55, 0
  br i1 %.not54, label %56, label %57

56:                                               ; preds = %52
  tail call void (ptr, i32, ptr, ...) @test_info(ptr noundef nonnull @.str.2, i32 noundef 457, ptr noundef nonnull @.str.15, ptr noundef %53, ptr noundef %54, i32 noundef %32) #2
  br label %.loopexit

57:                                               ; preds = %52, %.lr.ph
  %58 = add nuw nsw i32 %.04166, 1
  %59 = tail call i32 @OPENSSL_sk_num(ptr noundef nonnull %25) #2
  %60 = icmp slt i32 %58, %59
  br i1 %60, label %.lr.ph, label %.loopexit, !llvm.loop !14

.loopexit:                                        ; preds = %57, %.preheader, %56, %51, %48, %29, %23, %19, %16, %11, %7, %3
  %.043 = phi ptr [ null, %16 ], [ null, %23 ], [ %21, %29 ], [ %21, %56 ], [ %21, %51 ], [ %21, %48 ], [ null, %19 ], [ null, %11 ], [ null, %7 ], [ null, %3 ], [ %21, %.preheader ], [ %21, %57 ]
  %.042 = phi ptr [ null, %16 ], [ %14, %23 ], [ %14, %29 ], [ %14, %56 ], [ %14, %51 ], [ %14, %48 ], [ %14, %19 ], [ null, %11 ], [ null, %7 ], [ null, %3 ], [ %14, %.preheader ], [ %14, %57 ]
  %.0 = phi i32 [ 0, %16 ], [ 0, %23 ], [ 0, %29 ], [ 0, %56 ], [ 0, %51 ], [ 0, %48 ], [ 0, %19 ], [ 0, %11 ], [ 0, %7 ], [ 0, %3 ], [ 1, %.preheader ], [ 1, %57 ]
  tail call void @SSL_CTX_free(ptr noundef %.042) #2
  tail call void @SSL_free(ptr noundef %.043) #2
  ret i32 %.0
}